target datalayout = "e-m:e-p270:32:32-p271:32:32-p272:64:64-i64:64-i128:128-f80:128-n8:16:32:64-S128"
target triple = "x86_64-pc-linux-gnu"

%struct.IDAMemRec = type { ptr, double, ptr, ptr, i32, double, double, ptr, i32, i32, ptr, ptr, i32, i32, [6 x ptr], [6 x double], [6 x double], [6 x double], [6 x double], [6 x double], ptr, ptr, ptr, ptr, ptr, ptr, ptr, ptr, ptr, ptr, ptr, ptr, ptr, ptr, ptr, ptr, ptr, double, ptr, ptr, i32, i32, i32, i32, i32, i32, i32, i32, double, double, double, i32, double, i32, i32, i32, i32, i32, double, double, double, double, double, double, double, double, double, double, double, double, double, double, double, double, i32, i32, i32, i32, i64, double, double, double, double, double, double, double, double, double, i64, i64, i64, i64, i64, i64, i64, i64, i64, i64, i64, double, i32, i32, i32, i32, i32, ptr, i32, ptr, ptr, ptr, ptr, ptr, ptr, ptr, double, i32, ptr, i32, ptr, ptr, double, double, double, ptr, ptr, ptr, double, double, i32, i32, i64, ptr, i32, [6 x double], [5 x double], [6 x ptr], [6 x ptr] }

@.str = private unnamed_addr constant [109 x i8] c"generated/home/dtcxzyw/WorkSpace/Projects/compilers/llvm-opt-benchmark/bench/sundials/sundials/src/ida/ida.c\00", align 1
@.str.19 = private unnamed_addr constant [82 x i8] c"The value tstop = %lg is behind current t = %lg, in the direction of integration.\00", align 1
@__func__.IDAStopTest1 = private unnamed_addr constant [13 x i8] c"IDAStopTest1\00", align 1
@.str.37 = private unnamed_addr constant [84 x i8] c"Trouble interpolating at tout = %lg. tout too far back in direction of integration.\00", align 1

; Function Attrs: nounwind uwtable
define internal i32 @IDAStopTest1(ptr noundef %0, double noundef %1, ptr noundef %2, ptr noundef %3, ptr noundef %4, i32 noundef %5) #0 {
  %7 = alloca i32, align 4
  %8 = alloca ptr, align 8
  %9 = alloca double, align 8
  %10 = alloca ptr, align 8
  %11 = alloca ptr, align 8
  %12 = alloca ptr, align 8
  %13 = alloca i32, align 4
  %14 = alloca i32, align 4
  %15 = alloca double, align 8
  %16 = alloca i32, align 4
  store ptr %0, ptr %8, align 8, !tbaa !8
  store double %1, ptr %9, align 8, !tbaa !74
  store ptr %2, ptr %10, align 8, !tbaa !137
  store ptr %3, ptr %11, align 8, !tbaa !75
  store ptr %4, ptr %12, align 8, !tbaa !75
  store i32 %5, ptr %13, align 4, !tbaa !64
  call void @llvm.lifetime.start.p0(i64 4, ptr %14) #10
  call void @llvm.lifetime.start.p0(i64 8, ptr %15) #10
  %17 = load ptr, ptr %8, align 8, !tbaa !8
  %18 = getelementptr inbounds nuw %struct.IDAMemRec, ptr %17, i32 0, i32 51
  %19 = load i32, ptr %18, align 8, !tbaa !46
  %20 = icmp ne i32 %19, 0
  br i1 %20, label %21, label %149

21:                                               ; preds = %6
  %22 = load ptr, ptr %8, align 8, !tbaa !8
  %23 = getelementptr inbounds nuw %struct.IDAMemRec, ptr %22, i32 0, i32 63
  %24 = load double, ptr %23, align 8, !tbaa !83
  %25 = load ptr, ptr %8, align 8, !tbaa !8
  %26 = getelementptr inbounds nuw %struct.IDAMemRec, ptr %25, i32 0, i32 52
  %27 = load double, ptr %26, align 8, !tbaa !143
  %28 = fsub double %24, %27
  %29 = load ptr, ptr %8, align 8, !tbaa !8
  %30 = getelementptr inbounds nuw %struct.IDAMemRec, ptr %29, i32 0, i32 60
  %31 = load double, ptr %30, align 8, !tbaa !142
  %32 = fmul double %28, %31
  %33 = fcmp ogt double %32, 0.000000e+00
  br i1 %33, label %34, label %42

34:                                               ; preds = %21
  %35 = load ptr, ptr %8, align 8, !tbaa !8
  %36 = load ptr, ptr %8, align 8, !tbaa !8
  %37 = getelementptr inbounds nuw %struct.IDAMemRec, ptr %36, i32 0, i32 52
  %38 = load double, ptr %37, align 8, !tbaa !143
  %39 = load ptr, ptr %8, align 8, !tbaa !8
  %40 = getelementptr inbounds nuw %struct.IDAMemRec, ptr %39, i32 0, i32 63
  %41 = load double, ptr %40, align 8, !tbaa !83
  call void (ptr, i32, i32, ptr, ptr, ptr, ...) @IDAProcessError(ptr noundef %35, i32 noundef -22, i32 noundef 2186, ptr noundef @__func__.IDAStopTest1, ptr noundef @.str, ptr noundef @.str.19, double noundef %38, double noundef %41)
  store i32 -22, ptr %7, align 4
  store i32 1, ptr %16, align 4
  br label %219

42:                                               ; preds = %21
  %43 = load ptr, ptr %8, align 8, !tbaa !8
  %44 = getelementptr inbounds nuw %struct.IDAMemRec, ptr %43, i32 0, i32 1
  %45 = load double, ptr %44, align 8, !tbaa !19
  %46 = fmul double 1.000000e+02, %45
  %47 = load ptr, ptr %8, align 8, !tbaa !8
  %48 = getelementptr inbounds nuw %struct.IDAMemRec, ptr %47, i32 0, i32 63
  %49 = load double, ptr %48, align 8, !tbaa !83
  %50 = call double @llvm.fabs.f64(double %49)
  %51 = load ptr, ptr %8, align 8, !tbaa !8
  %52 = getelementptr inbounds nuw %struct.IDAMemRec, ptr %51, i32 0, i32 60
  %53 = load double, ptr %52, align 8, !tbaa !142
  %54 = call double @llvm.fabs.f64(double %53)
  %55 = fadd double %50, %54
  %56 = fmul double %46, %55
  store double %56, ptr %15, align 8, !tbaa !74
  %57 = load ptr, ptr %8, align 8, !tbaa !8
  %58 = getelementptr inbounds nuw %struct.IDAMemRec, ptr %57, i32 0, i32 63
  %59 = load double, ptr %58, align 8, !tbaa !83
  %60 = load ptr, ptr %8, align 8, !tbaa !8
  %61 = getelementptr inbounds nuw %struct.IDAMemRec, ptr %60, i32 0, i32 52
  %62 = load double, ptr %61, align 8, !tbaa !143
  %63 = fsub double %59, %62
  %64 = call double @llvm.fabs.f64(double %63)
  %65 = load double, ptr %15, align 8, !tbaa !74
  %66 = fcmp ole double %64, %65
  br i1 %66, label %67, label %115

67:                                               ; preds = %42
  %68 = load double, ptr %9, align 8, !tbaa !74
  %69 = load ptr, ptr %8, align 8, !tbaa !8
  %70 = getelementptr inbounds nuw %struct.IDAMemRec, ptr %69, i32 0, i32 52
  %71 = load double, ptr %70, align 8, !tbaa !143
  %72 = fsub double %68, %71
  %73 = load ptr, ptr %8, align 8, !tbaa !8
  %74 = getelementptr inbounds nuw %struct.IDAMemRec, ptr %73, i32 0, i32 60
  %75 = load double, ptr %74, align 8, !tbaa !142
  %76 = fmul double %72, %75
  %77 = fcmp oge double %76, 0.000000e+00
  br i1 %77, label %87, label %78

78:                                               ; preds = %67
  %79 = load double, ptr %9, align 8, !tbaa !74
  %80 = load ptr, ptr %8, align 8, !tbaa !8
  %81 = getelementptr inbounds nuw %struct.IDAMemRec, ptr %80, i32 0, i32 52
  %82 = load double, ptr %81, align 8, !tbaa !143
  %83 = fsub double %79, %82
  %84 = call double @llvm.fabs.f64(double %83)
  %85 = load double, ptr %15, align 8, !tbaa !74
  %86 = fcmp ole double %84, %85
  br i1 %86, label %87, label %114

87:                                               ; preds = %78, %67
  %88 = load ptr, ptr %8, align 8, !tbaa !8
  %89 = load ptr, ptr %8, align 8, !tbaa !8
  %90 = getelementptr inbounds nuw %struct.IDAMemRec, ptr %89, i32 0, i32 52
  %91 = load double, ptr %90, align 8, !tbaa !143
  %92 = load ptr, ptr %11, align 8, !tbaa !75
  %93 = load ptr, ptr %12, align 8, !tbaa !75
  %94 = call i32 @IDAGetSolution(ptr noundef %88, double noundef %91, ptr noundef %92, ptr noundef %93)
  store i32 %94, ptr %14, align 4, !tbaa !64
  %95 = load i32, ptr %14, align 4, !tbaa !64
  %96 = icmp ne i32 %95, 0
  br i1 %96, label %97, label %105

97:                                               ; preds = %87
  %98 = load ptr, ptr %8, align 8, !tbaa !8
  %99 = load ptr, ptr %8, align 8, !tbaa !8
  %100 = getelementptr inbounds nuw %struct.IDAMemRec, ptr %99, i32 0, i32 52
  %101 = load double, ptr %100, align 8, !tbaa !143
  %102 = load ptr, ptr %8, align 8, !tbaa !8
  %103 = getelementptr inbounds nuw %struct.IDAMemRec, ptr %102, i32 0, i32 63
  %104 = load double, ptr %103, align 8, !tbaa !83
  call void (ptr, i32, i32, ptr, ptr, ptr, ...) @IDAProcessError(ptr noundef %98, i32 noundef -22, i32 noundef 2204, ptr noundef @__func__.IDAStopTest1, ptr noundef @.str, ptr noundef @.str.19, double noundef %101, double noundef %104)
  store i32 -22, ptr %7, align 4
  store i32 1, ptr %16, align 4
  br label %219

105:                                              ; preds = %87
  %106 = load ptr, ptr %8, align 8, !tbaa !8
  %107 = getelementptr inbounds nuw %struct.IDAMemRec, ptr %106, i32 0, i32 52
  %108 = load double, ptr %107, align 8, !tbaa !143
  %109 = load ptr, ptr %8, align 8, !tbaa !8
  %110 = getelementptr inbounds nuw %struct.IDAMemRec, ptr %109, i32 0, i32 64
  store double %108, ptr %110, align 8, !tbaa !149
  %111 = load ptr, ptr %10, align 8, !tbaa !137
  store double %108, ptr %111, align 8, !tbaa !74
  %112 = load ptr, ptr %8, align 8, !tbaa !8
  %113 = getelementptr inbounds nuw %struct.IDAMemRec, ptr %112, i32 0, i32 51
  store i32 0, ptr %113, align 8, !tbaa !46
  store i32 1, ptr %7, align 4
  store i32 1, ptr %16, align 4
  br label %219

114:                                              ; preds = %78
  br label %148

115:                                              ; preds = %42
  %116 = load ptr, ptr %8, align 8, !tbaa !8
  %117 = getelementptr inbounds nuw %struct.IDAMemRec, ptr %116, i32 0, i32 63
  %118 = load double, ptr %117, align 8, !tbaa !83
  %119 = load ptr, ptr %8, align 8, !tbaa !8
  %120 = getelementptr inbounds nuw %struct.IDAMemRec, ptr %119, i32 0, i32 60
  %121 = load double, ptr %120, align 8, !tbaa !142
  %122 = fadd double %118, %121
  %123 = load ptr, ptr %8, align 8, !tbaa !8
  %124 = getelementptr inbounds nuw %struct.IDAMemRec, ptr %123, i32 0, i32 52
  %125 = load double, ptr %124, align 8, !tbaa !143
  %126 = fsub double %122, %125
  %127 = load ptr, ptr %8, align 8, !tbaa !8
  %128 = getelementptr inbounds nuw %struct.IDAMemRec, ptr %127, i32 0, i32 60
  %129 = load double, ptr %128, align 8, !tbaa !142
  %130 = fmul double %126, %129
  %131 = fcmp ogt double %130, 0.000000e+00
  br i1 %131, label %132, label %147

132:                                              ; preds = %115
  %133 = load ptr, ptr %8, align 8, !tbaa !8
  %134 = getelementptr inbounds nuw %struct.IDAMemRec, ptr %133, i32 0, i32 52
  %135 = load double, ptr %134, align 8, !tbaa !143
  %136 = load ptr, ptr %8, align 8, !tbaa !8
  %137 = getelementptr inbounds nuw %struct.IDAMemRec, ptr %136, i32 0, i32 63
  %138 = load double, ptr %137, align 8, !tbaa !83
  %139 = fsub double %135, %138
  %140 = load ptr, ptr %8, align 8, !tbaa !8
  %141 = getelementptr inbounds nuw %struct.IDAMemRec, ptr %140, i32 0, i32 1
  %142 = load double, ptr %141, align 8, !tbaa !19
  %143 = call double @llvm.fmuladd.f64(double -4.000000e+00, double %142, double 1.000000e+00)
  %144 = fmul double %139, %143
  %145 = load ptr, ptr %8, align 8, !tbaa !8
  %146 = getelementptr inbounds nuw %struct.IDAMemRec, ptr %145, i32 0, i32 60
  store double %144, ptr %146, align 8, !tbaa !142
  br label %147

147:                                              ; preds = %132, %115
  br label %148

148:                                              ; preds = %147, %114
  br label %149

149:                                              ; preds = %148, %6
  %150 = load i32, ptr %13, align 4, !tbaa !64
  switch i32 %150, label %218 [
    i32 1, label %151
    i32 2, label %190
  ]

151:                                              ; preds = %149
  %152 = load double, ptr %9, align 8, !tbaa !74
  %153 = load ptr, ptr %8, align 8, !tbaa !8
  %154 = getelementptr inbounds nuw %struct.IDAMemRec, ptr %153, i32 0, i32 64
  %155 = load double, ptr %154, align 8, !tbaa !149
  %156 = fcmp oeq double %152, %155
  br i1 %156, label %157, label %162

157:                                              ; preds = %151
  %158 = load double, ptr %9, align 8, !tbaa !74
  %159 = load ptr, ptr %8, align 8, !tbaa !8
  %160 = getelementptr inbounds nuw %struct.IDAMemRec, ptr %159, i32 0, i32 64
  store double %158, ptr %160, align 8, !tbaa !149
  %161 = load ptr, ptr %10, align 8, !tbaa !137
  store double %158, ptr %161, align 8, !tbaa !74
  store i32 0, ptr %7, align 4
  store i32 1, ptr %16, align 4
  br label %219

162:                                              ; preds = %151
  %163 = load ptr, ptr %8, align 8, !tbaa !8
  %164 = getelementptr inbounds nuw %struct.IDAMemRec, ptr %163, i32 0, i32 63
  %165 = load double, ptr %164, align 8, !tbaa !83
  %166 = load double, ptr %9, align 8, !tbaa !74
  %167 = fsub double %165, %166
  %168 = load ptr, ptr %8, align 8, !tbaa !8
  %169 = getelementptr inbounds nuw %struct.IDAMemRec, ptr %168, i32 0, i32 60
  %170 = load double, ptr %169, align 8, !tbaa !142
  %171 = fmul double %167, %170
  %172 = fcmp oge double %171, 0.000000e+00
  br i1 %172, label %173, label %189

173:                                              ; preds = %162
  %174 = load ptr, ptr %8, align 8, !tbaa !8
  %175 = load double, ptr %9, align 8, !tbaa !74
  %176 = load ptr, ptr %11, align 8, !tbaa !75
  %177 = load ptr, ptr %12, align 8, !tbaa !75
  %178 = call i32 @IDAGetSolution(ptr noundef %174, double noundef %175, ptr noundef %176, ptr noundef %177)
  store i32 %178, ptr %14, align 4, !tbaa !64
  %179 = load i32, ptr %14, align 4, !tbaa !64
  %180 = icmp ne i32 %179, 0
  br i1 %180, label %181, label %184

181:                                              ; preds = %173
  %182 = load ptr, ptr %8, align 8, !tbaa !8
  %183 = load double, ptr %9, align 8, !tbaa !74
  call void (ptr, i32, i32, ptr, ptr, ptr, ...) @IDAProcessError(ptr noundef %182, i32 noundef -22, i32 noundef 2238, ptr noundef @__func__.IDAStopTest1, ptr noundef @.str, ptr noundef @.str.37, double noundef %183)
  store i32 -22, ptr %7, align 4
  store i32 1, ptr %16, align 4
  br label %219

184:                                              ; preds = %173
  %185 = load double, ptr %9, align 8, !tbaa !74
  %186 = load ptr, ptr %8, align 8, !tbaa !8
  %187 = getelementptr inbounds nuw %struct.IDAMemRec, ptr %186, i32 0, i32 64
  store double %185, ptr %187, align 8, !tbaa !149
  %188 = load ptr, ptr %10, align 8, !tbaa !137
  store double %185, ptr %188, align 8, !tbaa !74
  store i32 0, ptr %7, align 4
  store i32 1, ptr %16, align 4
  br label %219

189:                                              ; preds = %162
  store i32 99, ptr %7, align 4
  store i32 1, ptr %16, align 4
  br label %219

190:                                              ; preds = %149
  %191 = load ptr, ptr %8, align 8, !tbaa !8
  %192 = getelementptr inbounds nuw %struct.IDAMemRec, ptr %191, i32 0, i32 63
  %193 = load double, ptr %192, align 8, !tbaa !83
  %194 = load ptr, ptr %8, align 8, !tbaa !8
  %195 = getelementptr inbounds nuw %struct.IDAMemRec, ptr %194, i32 0, i32 64
  %196 = load double, ptr %195, align 8, !tbaa !149
  %197 = fsub double %193, %196
  %198 = load ptr, ptr %8, align 8, !tbaa !8
  %199 = getelementptr inbounds nuw %struct.IDAMemRec, ptr %198, i32 0, i32 60
  %200 = load double, ptr %199, align 8, !tbaa !142
  %201 = fmul double %197, %200
  %202 = fcmp ogt double %201, 0.000000e+00
  br i1 %202, label %203, label %217

203:                                              ; preds = %190
  %204 = load ptr, ptr %8, align 8, !tbaa !8
  %205 = load ptr, ptr %8, align 8, !tbaa !8
  %206 = getelementptr inbounds nuw %struct.IDAMemRec, ptr %205, i32 0, i32 63
  %207 = load double, ptr %206, align 8, !tbaa !83
  %208 = load ptr, ptr %11, align 8, !tbaa !75
  %209 = load ptr, ptr %12, align 8, !tbaa !75
  %210 = call i32 @IDAGetSolution(ptr noundef %204, double noundef %207, ptr noundef %208, ptr noundef %209)
  store i32 %210, ptr %14, align 4, !tbaa !64
  %211 = load ptr, ptr %8, align 8, !tbaa !8
  %212 = getelementptr inbounds nuw %struct.IDAMemRec, ptr %211, i32 0, i32 63
  %213 = load double, ptr %212, align 8, !tbaa !83
  %214 = load ptr, ptr %8, align 8, !tbaa !8
  %215 = getelementptr inbounds nuw %struct.IDAMemRec, ptr %214, i32 0, i32 64
  store double %213, ptr %215, align 8, !tbaa !149
  %216 = load ptr, ptr %10, align 8, !tbaa !137
  store double %213, ptr %216, align 8, !tbaa !74
  store i32 0, ptr %7, align 4
  store i32 1, ptr %16, align 4
  br label %219

217:                                              ; preds = %190
  store i32 99, ptr %7, align 4
  store i32 1, ptr %16, align 4
  br label %219

218:                                              ; preds = %149
  store i32 -22, ptr %7, align 4
  store i32 1, ptr %16, align 4
  br label %219

219:                                              ; preds = %218, %217, %203, %189, %184, %181, %157, %105, %97, %34
  call void @llvm.lifetime.end.p0(i64 8, ptr %15) #10
  call void @llvm.lifetime.end.p0(i64 4, ptr %14) #10
  %220 = load i32, ptr %7, align 4
  ret i32 %220
}