; Function Attrs: nounwind uwtable
define internal fastcc range(i32 -22, 100) i32 @IDAStopTest1(ptr noundef nonnull %0, double noundef %1, ptr noundef nonnull writeonly captures(none) %2, ptr noundef nonnull %3, ptr noundef nonnull %4, i32 noundef %5) unnamed_addr #0 {
  %7 = getelementptr inbounds nuw i8, ptr %0, i64 600
  %8 = load i32, ptr %7, align 8, !tbaa !122
  %.not = icmp eq i32 %8, 0
  br i1 %.not, label %52, label %9

9:                                                ; preds = %6
  %10 = getelementptr inbounds nuw i8, ptr %0, i64 680
  %11 = load double, ptr %10, align 8, !tbaa !80
  %12 = getelementptr inbounds nuw i8, ptr %0, i64 608
  %13 = load double, ptr %12, align 8, !tbaa !123
  %14 = fsub double %11, %13
  %15 = getelementptr inbounds nuw i8, ptr %0, i64 656
  %16 = load double, ptr %15, align 8, !tbaa !118
  %17 = fmul double %14, %16
  %18 = fcmp ogt double %17, 0.000000e+00
  br i1 %18, label %19, label %20

19:                                               ; preds = %9
  tail call void (ptr, i32, i32, ptr, ptr, ptr, ...) @IDAProcessError(ptr noundef nonnull %0, i32 noundef -22, i32 noundef 2186, ptr noundef nonnull @__func__.IDAStopTest1, ptr noundef nonnull @.str, ptr noundef nonnull @.str.19, double noundef %13, double noundef %11)
  br label %83

20:                                               ; preds = %9
  %21 = getelementptr inbounds nuw i8, ptr %0, i64 8
  %22 = load double, ptr %21, align 8, !tbaa !16
  %23 = fmul double %22, 1.000000e+02
  %24 = tail call double @llvm.fabs.f64(double %11)
  %25 = tail call double @llvm.fabs.f64(double %16)
  %26 = fadd double %24, %25
  %27 = fmul double %26, %23
  %28 = tail call double @llvm.fabs.f64(double %14)
  %29 = fcmp ugt double %28, %27
  br i1 %29, label %43, label %30

30:                                               ; preds = %20
  %31 = fsub double %1, %13
  %32 = fmul double %31, %16
  %33 = fcmp ult double %32, 0.000000e+00
  %34 = tail call double @llvm.fabs.f64(double %31)
  %35 = fcmp ugt double %34, %27
  %or.cond = and i1 %33, %35
  br i1 %or.cond, label %52, label %36

36:                                               ; preds = %30
  %37 = tail call i32 @IDAGetSolution(ptr noundef nonnull %0, double noundef %13, ptr noundef nonnull %3, ptr noundef nonnull %4)
  %.not71 = icmp eq i32 %37, 0
  %38 = load double, ptr %12, align 8, !tbaa !123
  br i1 %.not71, label %41, label %39

39:                                               ; preds = %36
  %40 = load double, ptr %10, align 8, !tbaa !80
  tail call void (ptr, i32, i32, ptr, ptr, ptr, ...) @IDAProcessError(ptr noundef nonnull %0, i32 noundef -22, i32 noundef 2204, ptr noundef nonnull @__func__.IDAStopTest1, ptr noundef nonnull @.str, ptr noundef nonnull @.str.19, double noundef %38, double noundef %40)
  br label %83

41:                                               ; preds = %36
  %42 = getelementptr inbounds nuw i8, ptr %0, i64 688
  store double %38, ptr %42, align 8, !tbaa !131
  store double %38, ptr %2, align 8, !tbaa !130
  store i32 0, ptr %7, align 8, !tbaa !122
  br label %83

43:                                               ; preds = %20
  %44 = fadd double %11, %16
  %45 = fsub double %44, %13
  %46 = fmul double %16, %45
  %47 = fcmp ogt double %46, 0.000000e+00
  br i1 %47, label %48, label %52

48:                                               ; preds = %43
  %49 = fsub double %13, %11
  %50 = tail call double @llvm.fmuladd.f64(double %22, double -4.000000e+00, double 1.000000e+00)
  %51 = fmul double %49, %50
  store double %51, ptr %15, align 8, !tbaa !118
  br label %52

52:                                               ; preds = %30, %48, %43, %6
  switch i32 %5, label %83 [
    i32 1, label %53
    i32 2, label %70
  ]

53:                                               ; preds = %52
  %54 = getelementptr inbounds nuw i8, ptr %0, i64 688
  %55 = load double, ptr %54, align 8, !tbaa !131
  %56 = fcmp oeq double %1, %55
  br i1 %56, label %57, label %58

57:                                               ; preds = %53
  store double %1, ptr %54, align 8, !tbaa !131
  store double %1, ptr %2, align 8, !tbaa !130
  br label %83

58:                                               ; preds = %53
  %59 = getelementptr inbounds nuw i8, ptr %0, i64 680
  %60 = load double, ptr %59, align 8, !tbaa !80
  %61 = fsub double %60, %1
  %62 = getelementptr inbounds nuw i8, ptr %0, i64 656
  %63 = load double, ptr %62, align 8, !tbaa !118
  %64 = fmul double %61, %63
  %65 = fcmp ult double %64, 0.000000e+00
  br i1 %65, label %83, label %66

66:                                               ; preds = %58
  %67 = tail call i32 @IDAGetSolution(ptr noundef nonnull %0, double noundef %1, ptr noundef nonnull %3, ptr noundef nonnull %4)
  %.not70 = icmp eq i32 %67, 0
  br i1 %.not70, label %69, label %68

68:                                               ; preds = %66
  tail call void (ptr, i32, i32, ptr, ptr, ptr, ...) @IDAProcessError(ptr noundef nonnull %0, i32 noundef -22, i32 noundef 2238, ptr noundef nonnull @__func__.IDAStopTest1, ptr noundef nonnull @.str, ptr noundef nonnull @.str.37, double noundef %1)
  br label %83

69:                                               ; preds = %66
  store double %1, ptr %54, align 8, !tbaa !131
  store double %1, ptr %2, align 8, !tbaa !130
  br label %83

70:                                               ; preds = %52
  %71 = getelementptr inbounds nuw i8, ptr %0, i64 680
  %72 = load double, ptr %71, align 8, !tbaa !80
  %73 = getelementptr inbounds nuw i8, ptr %0, i64 688
  %74 = load double, ptr %73, align 8, !tbaa !131
  %75 = fsub double %72, %74
  %76 = getelementptr inbounds nuw i8, ptr %0, i64 656
  %77 = load double, ptr %76, align 8, !tbaa !118
  %78 = fmul double %75, %77
  %79 = fcmp ogt double %78, 0.000000e+00
  br i1 %79, label %80, label %83

80:                                               ; preds = %70
  %81 = tail call i32 @IDAGetSolution(ptr noundef nonnull %0, double noundef %72, ptr noundef nonnull %3, ptr noundef nonnull %4)
  %82 = load double, ptr %71, align 8, !tbaa !80
  store double %82, ptr %73, align 8, !tbaa !131
  store double %82, ptr %2, align 8, !tbaa !130
  br label %83

83:                                               ; preds = %52, %70, %58, %80, %69, %68, %57, %41, %39, %19
  %.0 = phi i32 [ -22, %19 ], [ -22, %39 ], [ 1, %41 ], [ 0, %80 ], [ 0, %57 ], [ -22, %68 ], [ 0, %69 ], [ 99, %58 ], [ 99, %70 ], [ -22, %52 ]
  ret i32 %.0
}